target datalayout = "e-m:e-p270:32:32-p271:32:32-p272:64:64-i64:64-i128:128-f80:128-n8:16:32:64-S128"
target triple = "x86_64-unknown-linux-gnu"

%"class.Assimp::Logger.base" = type <{ ptr, i32 }>
%"class.__gnu_cxx::__normal_iterator.5" = type { ptr }
%"class.__gnu_cxx::__normal_iterator" = type { ptr }
%"class.Assimp::DefaultLogger" = type { %"class.Assimp::Logger.base", %"class.std::vector.0", i8, [2048 x i8], i64 }
%"class.std::vector.0" = type { %"struct.std::_Vector_base.1" }
%"struct.std::_Vector_base.1" = type { %"struct.std::_Vector_base<Assimp::LogStreamInfo *, std::allocator<Assimp::LogStreamInfo *>>::_Vector_impl" }
%"struct.std::_Vector_base<Assimp::LogStreamInfo *, std::allocator<Assimp::LogStreamInfo *>>::_Vector_impl" = type { %"struct.std::_Vector_base<Assimp::LogStreamInfo *, std::allocator<Assimp::LogStreamInfo *>>::_Vector_impl_data" }
%"struct.std::_Vector_base<Assimp::LogStreamInfo *, std::allocator<Assimp::LogStreamInfo *>>::_Vector_impl_data" = type { ptr, ptr, ptr }
%"struct.Assimp::LogStreamInfo" = type { i32, ptr }

@.str.7 = private unnamed_addr constant [51 x i8] c"Skipping one or more lines with the same contents\0A\00", align 1
@.str.8 = private unnamed_addr constant [2 x i8] c"\0A\00", align 1

; Function Attrs: mustprogress nounwind uwtable
define linkonce_odr hidden noundef nonnull align 8 dereferenceable(8) ptr @_ZNK9__gnu_cxx17__normal_iteratorIPKPN6Assimp13LogStreamInfoESt6vectorIS3_SaIS3_EEE4baseEv(ptr noundef nonnull align 8 dereferenceable(8) %this) #0 comdat align 2 {
entry:
  %this.addr = alloca ptr, align 8
  store ptr %this, ptr %this.addr, align 8
  %this1 = load ptr, ptr %this.addr, align 8
  %_M_current = getelementptr inbounds %"class.__gnu_cxx::__normal_iterator.5", ptr %this1, i32 0, i32 0
  ret ptr %_M_current
}

; Function Attrs: mustprogress nounwind uwtable
define linkonce_odr hidden noundef nonnull align 8 dereferenceable(8) ptr @_ZNK9__gnu_cxx17__normal_iteratorIPPN6Assimp13LogStreamInfoESt6vectorIS3_SaIS3_EEE4baseEv(ptr noundef nonnull align 8 dereferenceable(8) %this) #0 comdat align 2 {
entry:
  %this.addr = alloca ptr, align 8
  store ptr %this, ptr %this.addr, align 8
  %this1 = load ptr, ptr %this.addr, align 8
  %_M_current = getelementptr inbounds %"class.__gnu_cxx::__normal_iterator", ptr %this1, i32 0, i32 0
  ret ptr %_M_current
}

; Function Attrs: mustprogress nounwind uwtable
define linkonce_odr hidden void @_ZN9__gnu_cxx17__normal_iteratorIPPN6Assimp13LogStreamInfoESt6vectorIS3_SaIS3_EEEC2ERKS4_(ptr noundef nonnull align 8 dereferenceable(8) %this, ptr noundef nonnull align 8 dereferenceable(8) %__i) unnamed_addr #0 comdat align 2 {
entry:
  %this.addr = alloca ptr, align 8
  %__i.addr = alloca ptr, align 8
  store ptr %this, ptr %this.addr, align 8
  store ptr %__i, ptr %__i.addr, align 8
  %this1 = load ptr, ptr %this.addr, align 8
  %_M_current = getelementptr inbounds %"class.__gnu_cxx::__normal_iterator", ptr %this1, i32 0, i32 0
  %0 = load ptr, ptr %__i.addr, align 8
  %1 = load ptr, ptr %0, align 8
  store ptr %1, ptr %_M_current, align 8
  ret void
}

; Function Attrs: mustprogress nounwind uwtable
define linkonce_odr hidden noundef nonnull align 8 dereferenceable(8) ptr @_ZN9__gnu_cxx17__normal_iteratorIPKPN6Assimp13LogStreamInfoESt6vectorIS3_SaIS3_EEEppEv(ptr noundef nonnull align 8 dereferenceable(8) %this) #0 comdat align 2 {
entry:
  %this.addr = alloca ptr, align 8
  store ptr %this, ptr %this.addr, align 8
  %this1 = load ptr, ptr %this.addr, align 8
  %_M_current = getelementptr inbounds %"class.__gnu_cxx::__normal_iterator.5", ptr %this1, i32 0, i32 0
  %0 = load ptr, ptr %_M_current, align 8
  %incdec.ptr = getelementptr inbounds ptr, ptr %0, i32 1
  store ptr %incdec.ptr, ptr %_M_current, align 8
  ret ptr %this1
}

; Function Attrs: mustprogress nounwind uwtable
define linkonce_odr hidden noundef nonnull align 8 dereferenceable(8) ptr @_ZNK9__gnu_cxx17__normal_iteratorIPKPN6Assimp13LogStreamInfoESt6vectorIS3_SaIS3_EEEdeEv(ptr noundef nonnull align 8 dereferenceable(8) %this) #0 comdat align 2 {
entry:
  %this.addr = alloca ptr, align 8
  store ptr %this, ptr %this.addr, align 8
  %this1 = load ptr, ptr %this.addr, align 8
  %_M_current = getelementptr inbounds %"class.__gnu_cxx::__normal_iterator.5", ptr %this1, i32 0, i32 0
  %0 = load ptr, ptr %_M_current, align 8
  ret ptr %0
}

; Function Attrs: mustprogress nounwind uwtable
define linkonce_odr hidden noundef zeroext i1 @_ZN9__gnu_cxxneIPKPN6Assimp13LogStreamInfoEPS3_St6vectorIS3_SaIS3_EEEEbRKNS_17__normal_iteratorIT_T1_EERKNSA_IT0_SC_EE(ptr noundef nonnull align 8 dereferenceable(8) %__lhs, ptr noundef nonnull align 8 dereferenceable(8) %__rhs) #0 comdat {
entry:
  %__lhs.addr = alloca ptr, align 8
  %__rhs.addr = alloca ptr, align 8
  store ptr %__lhs, ptr %__lhs.addr, align 8
  store ptr %__rhs, ptr %__rhs.addr, align 8
  %0 = load ptr, ptr %__lhs.addr, align 8
  %call = call noundef nonnull align 8 dereferenceable(8) ptr @_ZNK9__gnu_cxx17__normal_iteratorIPKPN6Assimp13LogStreamInfoESt6vectorIS3_SaIS3_EEE4baseEv(ptr noundef nonnull align 8 dereferenceable(8) %0) #5
  %1 = load ptr, ptr %call, align 8
  %2 = load ptr, ptr %__rhs.addr, align 8
  %call1 = call noundef nonnull align 8 dereferenceable(8) ptr @_ZNK9__gnu_cxx17__normal_iteratorIPPN6Assimp13LogStreamInfoESt6vectorIS3_SaIS3_EEE4baseEv(ptr noundef nonnull align 8 dereferenceable(8) %2) #5
  %3 = load ptr, ptr %call1, align 8
  %cmp = icmp ne ptr %1, %3
  ret i1 %cmp
}

; Function Attrs: mustprogress nounwind uwtable
define linkonce_odr hidden ptr @_ZNSt6vectorIPN6Assimp13LogStreamInfoESaIS2_EE3endEv(ptr noundef nonnull align 8 dereferenceable(24) %this) #0 comdat align 2 {
entry:
  %retval = alloca %"class.__gnu_cxx::__normal_iterator", align 8
  %this.addr = alloca ptr, align 8
  store ptr %this, ptr %this.addr, align 8
  %this1 = load ptr, ptr %this.addr, align 8
  %_M_impl = getelementptr inbounds %"struct.std::_Vector_base.1", ptr %this1, i32 0, i32 0
  %_M_finish = getelementptr inbounds %"struct.std::_Vector_base<Assimp::LogStreamInfo *, std::allocator<Assimp::LogStreamInfo *>>::_Vector_impl_data", ptr %_M_impl, i32 0, i32 1
  call void @_ZN9__gnu_cxx17__normal_iteratorIPPN6Assimp13LogStreamInfoESt6vectorIS3_SaIS3_EEEC2ERKS4_(ptr noundef nonnull align 8 dereferenceable(8) %retval, ptr noundef nonnull align 8 dereferenceable(8) %_M_finish) #5
  %coerce.dive = getelementptr inbounds %"class.__gnu_cxx::__normal_iterator", ptr %retval, i32 0, i32 0
  %0 = load ptr, ptr %coerce.dive, align 8
  ret ptr %0
}

; Function Attrs: mustprogress nounwind uwtable
define linkonce_odr hidden void @_ZN9__gnu_cxx17__normal_iteratorIPKPN6Assimp13LogStreamInfoESt6vectorIS3_SaIS3_EEEC2IPS3_vEERKNS0_IT_S8_EE(ptr noundef nonnull align 8 dereferenceable(8) %this, ptr noundef nonnull align 8 dereferenceable(8) %__i) unnamed_addr #0 comdat align 2 {
entry:
  %this.addr = alloca ptr, align 8
  %__i.addr = alloca ptr, align 8
  store ptr %this, ptr %this.addr, align 8
  store ptr %__i, ptr %__i.addr, align 8
  %this1 = load ptr, ptr %this.addr, align 8
  %_M_current = getelementptr inbounds %"class.__gnu_cxx::__normal_iterator.5", ptr %this1, i32 0, i32 0
  %0 = load ptr, ptr %__i.addr, align 8
  %call = call noundef nonnull align 8 dereferenceable(8) ptr @_ZNK9__gnu_cxx17__normal_iteratorIPPN6Assimp13LogStreamInfoESt6vectorIS3_SaIS3_EEE4baseEv(ptr noundef nonnull align 8 dereferenceable(8) %0) #5
  %1 = load ptr, ptr %call, align 8
  store ptr %1, ptr %_M_current, align 8
  ret void
}

; Function Attrs: mustprogress nounwind uwtable
define linkonce_odr hidden ptr @_ZNSt6vectorIPN6Assimp13LogStreamInfoESaIS2_EE5beginEv(ptr noundef nonnull align 8 dereferenceable(24) %this) #0 comdat align 2 {
entry:
  %retval = alloca %"class.__gnu_cxx::__normal_iterator", align 8
  %this.addr = alloca ptr, align 8
  store ptr %this, ptr %this.addr, align 8
  %this1 = load ptr, ptr %this.addr, align 8
  %_M_impl = getelementptr inbounds %"struct.std::_Vector_base.1", ptr %this1, i32 0, i32 0
  %_M_start = getelementptr inbounds %"struct.std::_Vector_base<Assimp::LogStreamInfo *, std::allocator<Assimp::LogStreamInfo *>>::_Vector_impl_data", ptr %_M_impl, i32 0, i32 0
  call void @_ZN9__gnu_cxx17__normal_iteratorIPPN6Assimp13LogStreamInfoESt6vectorIS3_SaIS3_EEEC2ERKS4_(ptr noundef nonnull align 8 dereferenceable(8) %retval, ptr noundef nonnull align 8 dereferenceable(8) %_M_start) #5
  %coerce.dive = getelementptr inbounds %"class.__gnu_cxx::__normal_iterator", ptr %retval, i32 0, i32 0
  %0 = load ptr, ptr %coerce.dive, align 8
  ret ptr %0
}

; Function Attrs: mustprogress uwtable
define void @_ZN6Assimp13DefaultLogger14WriteToStreamsEPKcNS_6Logger13ErrorSeverityE(ptr noundef nonnull align 8 dereferenceable(2104) %this, ptr noundef %message, i32 noundef %ErrorSev) #6 align 2 {
entry:
  %this.addr = alloca ptr, align 8
  %message.addr = alloca ptr, align 8
  %ErrorSev.addr = alloca i32, align 4
  %thisLen = alloca i64, align 8
  %it = alloca %"class.__gnu_cxx::__normal_iterator.5", align 8
  %ref.tmp = alloca %"class.__gnu_cxx::__normal_iterator", align 8
  %ref.tmp22 = alloca %"class.__gnu_cxx::__normal_iterator", align 8
  store ptr %this, ptr %this.addr, align 8
  store ptr %message, ptr %message.addr, align 8
  store i32 %ErrorSev, ptr %ErrorSev.addr, align 4
  %this1 = load ptr, ptr %this.addr, align 8
  %0 = load ptr, ptr %message.addr, align 8
  %call = call i64 @strlen(ptr noundef %0) #14
  store i64 %call, ptr %thisLen, align 8
  %1 = load i64, ptr %thisLen, align 8
  %lastLen = getelementptr inbounds %"class.Assimp::DefaultLogger", ptr %this1, i32 0, i32 4
  %2 = load i64, ptr %lastLen, align 8
  %sub = sub i64 %2, 1
  %cmp = icmp eq i64 %1, %sub
  br i1 %cmp, label %land.lhs.true, label %if.else

land.lhs.true:                                    ; preds = %entry
  %3 = load ptr, ptr %message.addr, align 8
  %lastMsg = getelementptr inbounds %"class.Assimp::DefaultLogger", ptr %this1, i32 0, i32 3
  %arraydecay = getelementptr inbounds [2048 x i8], ptr %lastMsg, i64 0, i64 0
  %lastLen2 = getelementptr inbounds %"class.Assimp::DefaultLogger", ptr %this1, i32 0, i32 4
  %4 = load i64, ptr %lastLen2, align 8
  %sub3 = sub i64 %4, 1
  %call4 = call i32 @strncmp(ptr noundef %3, ptr noundef %arraydecay, i64 noundef %sub3) #14
  %tobool = icmp ne i32 %call4, 0
  br i1 %tobool, label %if.else, label %if.then

if.then:                                          ; preds = %land.lhs.true
  %noRepeatMsg = getelementptr inbounds %"class.Assimp::DefaultLogger", ptr %this1, i32 0, i32 2
  %5 = load i8, ptr %noRepeatMsg, align 8
  %tobool5 = trunc i8 %5 to i1
  br i1 %tobool5, label %if.end, label %if.then6

if.then6:                                         ; preds = %if.then
  %noRepeatMsg7 = getelementptr inbounds %"class.Assimp::DefaultLogger", ptr %this1, i32 0, i32 2
  store i8 1, ptr %noRepeatMsg7, align 8
  store ptr @.str.7, ptr %message.addr, align 8
  br label %if.end

if.end:                                           ; preds = %if.then6, %if.then
  br label %for.end

if.else:                                          ; preds = %land.lhs.true, %entry
  %6 = load i64, ptr %thisLen, align 8
  %lastLen8 = getelementptr inbounds %"class.Assimp::DefaultLogger", ptr %this1, i32 0, i32 4
  store i64 %6, ptr %lastLen8, align 8
  %lastMsg9 = getelementptr inbounds %"class.Assimp::DefaultLogger", ptr %this1, i32 0, i32 3
  %arraydecay10 = getelementptr inbounds [2048 x i8], ptr %lastMsg9, i64 0, i64 0
  %7 = load ptr, ptr %message.addr, align 8
  %lastLen11 = getelementptr inbounds %"class.Assimp::DefaultLogger", ptr %this1, i32 0, i32 4
  %8 = load i64, ptr %lastLen11, align 8
  %add = add i64 %8, 1
  call void @llvm.memcpy.p0.p0.i64(ptr align 1 %arraydecay10, ptr align 1 %7, i64 %add, i1 false)
  %lastMsg12 = getelementptr inbounds %"class.Assimp::DefaultLogger", ptr %this1, i32 0, i32 3
  %arraydecay13 = getelementptr inbounds [2048 x i8], ptr %lastMsg12, i64 0, i64 0
  %lastLen14 = getelementptr inbounds %"class.Assimp::DefaultLogger", ptr %this1, i32 0, i32 4
  %9 = load i64, ptr %lastLen14, align 8
  %add.ptr = getelementptr inbounds i8, ptr %arraydecay13, i64 %9
  %call15 = call ptr @strcat(ptr noundef %add.ptr, ptr noundef @.str.8) #5
  %lastMsg16 = getelementptr inbounds %"class.Assimp::DefaultLogger", ptr %this1, i32 0, i32 3
  %arraydecay17 = getelementptr inbounds [2048 x i8], ptr %lastMsg16, i64 0, i64 0
  store ptr %arraydecay17, ptr %message.addr, align 8
  %noRepeatMsg18 = getelementptr inbounds %"class.Assimp::DefaultLogger", ptr %this1, i32 0, i32 2
  store i8 0, ptr %noRepeatMsg18, align 8
  %lastLen19 = getelementptr inbounds %"class.Assimp::DefaultLogger", ptr %this1, i32 0, i32 4
  %10 = load i64, ptr %lastLen19, align 8
  %inc = add i64 %10, 1
  store i64 %inc, ptr %lastLen19, align 8
  br label %if.end20

if.end20:                                         ; preds = %if.else
  %m_StreamArray = getelementptr inbounds %"class.Assimp::DefaultLogger", ptr %this1, i32 0, i32 1
  %call21 = call ptr @_ZNSt6vectorIPN6Assimp13LogStreamInfoESaIS2_EE5beginEv(ptr noundef nonnull align 8 dereferenceable(24) %m_StreamArray) #5
  %coerce.dive = getelementptr inbounds %"class.__gnu_cxx::__normal_iterator", ptr %ref.tmp, i32 0, i32 0
  store ptr %call21, ptr %coerce.dive, align 8
  call void @_ZN9__gnu_cxx17__normal_iteratorIPKPN6Assimp13LogStreamInfoESt6vectorIS3_SaIS3_EEEC2IPS3_vEERKNS0_IT_S8_EE(ptr noundef nonnull align 8 dereferenceable(8) %it, ptr noundef nonnull align 8 dereferenceable(8) %ref.tmp) #5
  br label %for.cond

for.cond:                                         ; preds = %for.inc, %if.end20
  %m_StreamArray23 = getelementptr inbounds %"class.Assimp::DefaultLogger", ptr %this1, i32 0, i32 1
  %call24 = call ptr @_ZNSt6vectorIPN6Assimp13LogStreamInfoESaIS2_EE3endEv(ptr noundef nonnull align 8 dereferenceable(24) %m_StreamArray23) #5
  %coerce.dive25 = getelementptr inbounds %"class.__gnu_cxx::__normal_iterator", ptr %ref.tmp22, i32 0, i32 0
  store ptr %call24, ptr %coerce.dive25, align 8
  %call26 = call noundef zeroext i1 @_ZN9__gnu_cxxneIPKPN6Assimp13LogStreamInfoEPS3_St6vectorIS3_SaIS3_EEEEbRKNS_17__normal_iteratorIT_T1_EERKNSA_IT0_SC_EE(ptr noundef nonnull align 8 dereferenceable(8) %it, ptr noundef nonnull align 8 dereferenceable(8) %ref.tmp22) #5
  br i1 %call26, label %for.body, label %for.end

for.body:                                         ; preds = %for.cond
  %11 = load i32, ptr %ErrorSev.addr, align 4
  %call27 = call noundef nonnull align 8 dereferenceable(8) ptr @_ZNK9__gnu_cxx17__normal_iteratorIPKPN6Assimp13LogStreamInfoESt6vectorIS3_SaIS3_EEEdeEv(ptr noundef nonnull align 8 dereferenceable(8) %it) #5
  %12 = load ptr, ptr %call27, align 8
  %m_uiErrorSeverity = getelementptr inbounds %"struct.Assimp::LogStreamInfo", ptr %12, i32 0, i32 0
  %13 = load i32, ptr %m_uiErrorSeverity, align 8
  %and = and i32 %11, %13
  %tobool28 = icmp ne i32 %and, 0
  br i1 %tobool28, label %if.then29, label %if.end31

if.then29:                                        ; preds = %for.body
  %call30 = call noundef nonnull align 8 dereferenceable(8) ptr @_ZNK9__gnu_cxx17__normal_iteratorIPKPN6Assimp13LogStreamInfoESt6vectorIS3_SaIS3_EEEdeEv(ptr noundef nonnull align 8 dereferenceable(8) %it) #5
  %14 = load ptr, ptr %call30, align 8
  %m_pStream = getelementptr inbounds %"struct.Assimp::LogStreamInfo", ptr %14, i32 0, i32 1
  %15 = load ptr, ptr %m_pStream, align 8
  %16 = load ptr, ptr %message.addr, align 8
  %vtable = load ptr, ptr %15, align 8
  %vfn = getelementptr inbounds ptr, ptr %vtable, i64 2
  %17 = load ptr, ptr %vfn, align 8
  call void %17(ptr noundef nonnull align 8 dereferenceable(8) %15, ptr noundef %16)
  br label %if.end31

if.end31:                                         ; preds = %if.then29, %for.body
  br label %for.inc

for.inc:                                          ; preds = %if.end31
  %call32 = call noundef nonnull align 8 dereferenceable(8) ptr @_ZN9__gnu_cxx17__normal_iteratorIPKPN6Assimp13LogStreamInfoESt6vectorIS3_SaIS3_EEEppEv(ptr noundef nonnull align 8 dereferenceable(8) %it) #5
  br label %for.cond, !llvm.loop !4

for.end:                                          ; preds = %for.cond, %if.end
  ret void
}